target datalayout = "e-m:e-p270:32:32-p271:32:32-p272:64:64-i64:64-i128:128-f80:128-n8:16:32:64-S128"
target triple = "x86_64-pc-linux-gnu"

%struct._ts = type { ptr, ptr, ptr, i64, %struct.anon.805, i32, i32, i32, i32, i32, i32, i32, i32, ptr, ptr, ptr, ptr, ptr, ptr, ptr, ptr, i32, ptr, i64, i64, ptr, i64, i32, ptr, ptr, ptr, i64, i64, ptr, ptr, ptr, %struct._err_stackitem, ptr, i64, ptr, ptr }
%struct.anon.805 = type { i32 }
%struct._err_stackitem = type { ptr, ptr }
%struct._stack_chunk = type { ptr, i64, i64, [1 x ptr] }

; Function Attrs: nounwind uwtable
define internal ptr @allocate_chunk(i32 noundef %0, ptr noundef %1) #0 {
  %3 = alloca ptr, align 8
  %4 = alloca i32, align 4
  %5 = alloca ptr, align 8
  %6 = alloca ptr, align 8
  %7 = alloca i32, align 4
  store i32 %0, ptr %4, align 4, !tbaa !197
  store ptr %1, ptr %5, align 8, !tbaa !322
  call void @llvm.lifetime.start.p0(i64 8, ptr %6) #10
  %8 = load i32, ptr %4, align 4, !tbaa !197
  %9 = sext i32 %8 to i64
  %10 = call ptr @_PyObject_VirtualAlloc(i64 noundef %9)
  store ptr %10, ptr %6, align 8, !tbaa !322
  %11 = load ptr, ptr %6, align 8, !tbaa !322
  %12 = icmp eq ptr %11, null
  br i1 %12, label %13, label %14

13:                                               ; preds = %2
  store ptr null, ptr %3, align 8
  store i32 1, ptr %7, align 4
  br label %25

14:                                               ; preds = %2
  %15 = load ptr, ptr %5, align 8, !tbaa !322
  %16 = load ptr, ptr %6, align 8, !tbaa !322
  %17 = getelementptr inbounds nuw %struct._stack_chunk, ptr %16, i32 0, i32 0
  store ptr %15, ptr %17, align 8, !tbaa !325
  %18 = load i32, ptr %4, align 4, !tbaa !197
  %19 = sext i32 %18 to i64
  %20 = load ptr, ptr %6, align 8, !tbaa !322
  %21 = getelementptr inbounds nuw %struct._stack_chunk, ptr %20, i32 0, i32 1
  store i64 %19, ptr %21, align 8, !tbaa !326
  %22 = load ptr, ptr %6, align 8, !tbaa !322
  %23 = getelementptr inbounds nuw %struct._stack_chunk, ptr %22, i32 0, i32 2
  store i64 0, ptr %23, align 8, !tbaa !323
  %24 = load ptr, ptr %6, align 8, !tbaa !322
  store ptr %24, ptr %3, align 8
  store i32 1, ptr %7, align 4
  br label %25

25:                                               ; preds = %14, %13
  call void @llvm.lifetime.end.p0(i64 8, ptr %6) #10
  %26 = load ptr, ptr %3, align 8
  ret ptr %26
}

; Function Attrs: nounwind uwtable
define internal ptr @push_chunk(ptr noundef %0, i32 noundef %1) #0 {
  %3 = alloca ptr, align 8
  %4 = alloca ptr, align 8
  %5 = alloca i32, align 4
  %6 = alloca i32, align 4
  %7 = alloca ptr, align 8
  %8 = alloca i32, align 4
  %9 = alloca ptr, align 8
  store ptr %0, ptr %4, align 8, !tbaa !4
  store i32 %1, ptr %5, align 4, !tbaa !197
  call void @llvm.lifetime.start.p0(i64 4, ptr %6) #10
  store i32 16384, ptr %6, align 4, !tbaa !197
  br label %10

10:                                               ; preds = %16, %2
  %11 = load i32, ptr %6, align 4, !tbaa !197
  %12 = load i32, ptr %5, align 4, !tbaa !197
  %13 = add i32 %12, 1000
  %14 = mul i32 8, %13
  %15 = icmp slt i32 %11, %14
  br i1 %15, label %16, label %19

16:                                               ; preds = %10
  %17 = load i32, ptr %6, align 4, !tbaa !197
  %18 = mul i32 %17, 2
  store i32 %18, ptr %6, align 4, !tbaa !197
  br label %10, !llvm.loop !320

19:                                               ; preds = %10
  call void @llvm.lifetime.start.p0(i64 8, ptr %7) #10
  %20 = load i32, ptr %6, align 4, !tbaa !197
  %21 = load ptr, ptr %4, align 8, !tbaa !4
  %22 = getelementptr inbounds nuw %struct._ts, ptr %21, i32 0, i32 33
  %23 = load ptr, ptr %22, align 8, !tbaa !321
  %24 = call ptr @allocate_chunk(i32 noundef %20, ptr noundef %23)
  store ptr %24, ptr %7, align 8, !tbaa !322
  %25 = load ptr, ptr %7, align 8, !tbaa !322
  %26 = icmp eq ptr %25, null
  br i1 %26, label %27, label %28

27:                                               ; preds = %19
  store ptr null, ptr %3, align 8
  store i32 1, ptr %8, align 4
  br label %76

28:                                               ; preds = %19
  %29 = load ptr, ptr %4, align 8, !tbaa !4
  %30 = getelementptr inbounds nuw %struct._ts, ptr %29, i32 0, i32 33
  %31 = load ptr, ptr %30, align 8, !tbaa !321
  %32 = icmp ne ptr %31, null
  br i1 %32, label %33, label %50

33:                                               ; preds = %28
  %34 = load ptr, ptr %4, align 8, !tbaa !4
  %35 = getelementptr inbounds nuw %struct._ts, ptr %34, i32 0, i32 34
  %36 = load ptr, ptr %35, align 8, !tbaa !318
  %37 = load ptr, ptr %4, align 8, !tbaa !4
  %38 = getelementptr inbounds nuw %struct._ts, ptr %37, i32 0, i32 33
  %39 = load ptr, ptr %38, align 8, !tbaa !321
  %40 = getelementptr inbounds nuw %struct._stack_chunk, ptr %39, i32 0, i32 3
  %41 = getelementptr [1 x ptr], ptr %40, i64 0, i64 0
  %42 = ptrtoint ptr %36 to i64
  %43 = ptrtoint ptr %41 to i64
  %44 = sub i64 %42, %43
  %45 = sdiv exact i64 %44, 8
  %46 = load ptr, ptr %4, align 8, !tbaa !4
  %47 = getelementptr inbounds nuw %struct._ts, ptr %46, i32 0, i32 33
  %48 = load ptr, ptr %47, align 8, !tbaa !321
  %49 = getelementptr inbounds nuw %struct._stack_chunk, ptr %48, i32 0, i32 2
  store i64 %45, ptr %49, align 8, !tbaa !323
  br label %50

50:                                               ; preds = %33, %28
  %51 = load ptr, ptr %7, align 8, !tbaa !322
  %52 = load ptr, ptr %4, align 8, !tbaa !4
  %53 = getelementptr inbounds nuw %struct._ts, ptr %52, i32 0, i32 33
  store ptr %51, ptr %53, align 8, !tbaa !321
  %54 = load ptr, ptr %7, align 8, !tbaa !322
  %55 = load i32, ptr %6, align 4, !tbaa !197
  %56 = sext i32 %55 to i64
  %57 = getelementptr i8, ptr %54, i64 %56
  %58 = load ptr, ptr %4, align 8, !tbaa !4
  %59 = getelementptr inbounds nuw %struct._ts, ptr %58, i32 0, i32 35
  store ptr %57, ptr %59, align 8, !tbaa !319
  call void @llvm.lifetime.start.p0(i64 8, ptr %9) #10
  %60 = load ptr, ptr %7, align 8, !tbaa !322
  %61 = getelementptr inbounds nuw %struct._stack_chunk, ptr %60, i32 0, i32 3
  %62 = load ptr, ptr %7, align 8, !tbaa !322
  %63 = getelementptr inbounds nuw %struct._stack_chunk, ptr %62, i32 0, i32 0
  %64 = load ptr, ptr %63, align 8, !tbaa !325
  %65 = icmp eq ptr %64, null
  %66 = zext i1 %65 to i32
  %67 = sext i32 %66 to i64
  %68 = getelementptr [1 x ptr], ptr %61, i64 0, i64 %67
  store ptr %68, ptr %9, align 8, !tbaa !232
  %69 = load ptr, ptr %9, align 8, !tbaa !232
  %70 = load i32, ptr %5, align 4, !tbaa !197
  %71 = sext i32 %70 to i64
  %72 = getelementptr ptr, ptr %69, i64 %71
  %73 = load ptr, ptr %4, align 8, !tbaa !4
  %74 = getelementptr inbounds nuw %struct._ts, ptr %73, i32 0, i32 34
  store ptr %72, ptr %74, align 8, !tbaa !318
  %75 = load ptr, ptr %9, align 8, !tbaa !232
  store ptr %75, ptr %3, align 8
  store i32 1, ptr %8, align 4
  call void @llvm.lifetime.end.p0(i64 8, ptr %9) #10
  br label %76

76:                                               ; preds = %50, %27
  call void @llvm.lifetime.end.p0(i64 8, ptr %7) #10
  call void @llvm.lifetime.end.p0(i64 4, ptr %6) #10
  %77 = load ptr, ptr %3, align 8
  ret ptr %77
}

; Function Attrs: inlinehint nounwind uwtable
define internal zeroext i1 @_PyThreadState_HasStackSpace(ptr noundef %0, i32 noundef %1) #1 {
  %3 = alloca ptr, align 8
  %4 = alloca i32, align 4
  store ptr %0, ptr %3, align 8, !tbaa !4
  store i32 %1, ptr %4, align 4, !tbaa !197
  %5 = load ptr, ptr %3, align 8, !tbaa !4
  %6 = getelementptr inbounds nuw %struct._ts, ptr %5, i32 0, i32 34
  %7 = load ptr, ptr %6, align 8, !tbaa !318
  %8 = icmp ne ptr %7, null
  br i1 %8, label %9, label %23

9:                                                ; preds = %2
  %10 = load i32, ptr %4, align 4, !tbaa !197
  %11 = sext i32 %10 to i64
  %12 = load ptr, ptr %3, align 8, !tbaa !4
  %13 = getelementptr inbounds nuw %struct._ts, ptr %12, i32 0, i32 35
  %14 = load ptr, ptr %13, align 8, !tbaa !319
  %15 = load ptr, ptr %3, align 8, !tbaa !4
  %16 = getelementptr inbounds nuw %struct._ts, ptr %15, i32 0, i32 34
  %17 = load ptr, ptr %16, align 8, !tbaa !318
  %18 = ptrtoint ptr %14 to i64
  %19 = ptrtoint ptr %17 to i64
  %20 = sub i64 %18, %19
  %21 = sdiv exact i64 %20, 8
  %22 = icmp slt i64 %11, %21
  br label %23

23:                                               ; preds = %9, %2
  %24 = phi i1 [ false, %2 ], [ %22, %9 ]
  ret i1 %24
}

; Function Attrs: nounwind uwtable
define hidden ptr @_PyThreadState_PushFrame(ptr noundef %0, i64 noundef %1) #0 {
  %3 = alloca ptr, align 8
  %4 = alloca ptr, align 8
  %5 = alloca i64, align 8
  %6 = alloca ptr, align 8
  store ptr %0, ptr %4, align 8, !tbaa !4
  store i64 %1, ptr %5, align 8, !tbaa !182
  %7 = load ptr, ptr %4, align 8, !tbaa !4
  %8 = load i64, ptr %5, align 8, !tbaa !182
  %9 = trunc i64 %8 to i32
  %10 = call zeroext i1 @_PyThreadState_HasStackSpace(ptr noundef %7, i32 noundef %9)
  br i1 %10, label %11, label %21

11:                                               ; preds = %2
  call void @llvm.lifetime.start.p0(i64 8, ptr %6) #10
  %12 = load ptr, ptr %4, align 8, !tbaa !4
  %13 = getelementptr inbounds nuw %struct._ts, ptr %12, i32 0, i32 34
  %14 = load ptr, ptr %13, align 8, !tbaa !318
  store ptr %14, ptr %6, align 8, !tbaa !290
  %15 = load i64, ptr %5, align 8, !tbaa !182
  %16 = load ptr, ptr %4, align 8, !tbaa !4
  %17 = getelementptr inbounds nuw %struct._ts, ptr %16, i32 0, i32 34
  %18 = load ptr, ptr %17, align 8, !tbaa !318
  %19 = getelementptr ptr, ptr %18, i64 %15
  store ptr %19, ptr %17, align 8, !tbaa !318
  %20 = load ptr, ptr %6, align 8, !tbaa !290
  store ptr %20, ptr %3, align 8
  call void @llvm.lifetime.end.p0(i64 8, ptr %6) #10
  br label %26

21:                                               ; preds = %2
  %22 = load ptr, ptr %4, align 8, !tbaa !4
  %23 = load i64, ptr %5, align 8, !tbaa !182
  %24 = trunc i64 %23 to i32
  %25 = call ptr @push_chunk(ptr noundef %22, i32 noundef %24)
  store ptr %25, ptr %3, align 8
  br label %26

26:                                               ; preds = %21, %11
  %27 = load ptr, ptr %3, align 8
  ret ptr %27
}