; Function Attrs: nounwind uwtable
define hidden ptr @_PyThreadState_PushFrame(ptr noundef captures(none) %0, i64 noundef %1) local_unnamed_addr #1 {
  %3 = trunc i64 %1 to i32
  %4 = getelementptr inbounds nuw i8, ptr %0, i64 240
  %5 = load ptr, ptr %4, align 8, !tbaa !311
  %.not.i = icmp eq ptr %5, null
  br i1 %.not.i, label %_PyThreadState_HasStackSpace.exit.thread, label %_PyThreadState_HasStackSpace.exit

_PyThreadState_HasStackSpace.exit:                ; preds = %2
  %sext = shl i64 %1, 32
  %6 = ashr exact i64 %sext, 32
  %7 = getelementptr inbounds nuw i8, ptr %0, i64 248
  %8 = load ptr, ptr %7, align 8, !tbaa !312
  %9 = ptrtoint ptr %8 to i64
  %10 = ptrtoint ptr %5 to i64
  %11 = sub i64 %9, %10
  %12 = ashr exact i64 %11, 3
  %13 = icmp sgt i64 %12, %6
  br i1 %13, label %14, label %_PyThreadState_HasStackSpace.exit.thread

14:                                               ; preds = %_PyThreadState_HasStackSpace.exit
  %15 = getelementptr ptr, ptr %5, i64 %1
  br label %push_chunk.exit.sink.split

_PyThreadState_HasStackSpace.exit.thread:         ; preds = %2, %_PyThreadState_HasStackSpace.exit
  %16 = shl i32 %3, 3
  %17 = add i32 %16, 8000
  br label %18

18:                                               ; preds = %18, %_PyThreadState_HasStackSpace.exit.thread
  %.021.i = phi i32 [ 16384, %_PyThreadState_HasStackSpace.exit.thread ], [ %20, %18 ]
  %19 = icmp slt i32 %.021.i, %17
  %20 = shl i32 %.021.i, 1
  br i1 %19, label %18, label %21, !llvm.loop !313

21:                                               ; preds = %18
  %22 = getelementptr inbounds nuw i8, ptr %0, i64 232
  %23 = load ptr, ptr %22, align 8, !tbaa !281
  %24 = sext i32 %.021.i to i64
  %25 = tail call ptr @_PyObject_VirtualAlloc(i64 noundef %24) #16
  %26 = icmp eq ptr %25, null
  br i1 %26, label %push_chunk.exit, label %27

27:                                               ; preds = %21
  store ptr %23, ptr %25, align 8, !tbaa !282
  %28 = getelementptr inbounds nuw i8, ptr %25, i64 8
  store i64 %24, ptr %28, align 8, !tbaa !284
  %29 = getelementptr inbounds nuw i8, ptr %25, i64 16
  store i64 0, ptr %29, align 8, !tbaa !314
  %30 = load ptr, ptr %22, align 8, !tbaa !281
  %.not.i8 = icmp eq ptr %30, null
  br i1 %.not.i8, label %39, label %31

31:                                               ; preds = %27
  %32 = load ptr, ptr %4, align 8, !tbaa !311
  %33 = getelementptr inbounds nuw i8, ptr %30, i64 24
  %34 = ptrtoint ptr %32 to i64
  %35 = ptrtoint ptr %33 to i64
  %36 = sub i64 %34, %35
  %37 = ashr exact i64 %36, 3
  %38 = getelementptr inbounds nuw i8, ptr %30, i64 16
  store i64 %37, ptr %38, align 8, !tbaa !314
  br label %39

39:                                               ; preds = %31, %27
  store ptr %25, ptr %22, align 8, !tbaa !281
  %40 = getelementptr i8, ptr %25, i64 %24
  %41 = getelementptr inbounds nuw i8, ptr %0, i64 248
  store ptr %40, ptr %41, align 8, !tbaa !312
  %42 = getelementptr inbounds nuw i8, ptr %25, i64 24
  %43 = icmp eq ptr %23, null
  %44 = zext i1 %43 to i64
  %45 = getelementptr [1 x ptr], ptr %42, i64 0, i64 %44
  %sext9 = shl i64 %1, 32
  %46 = ashr exact i64 %sext9, 29
  %47 = getelementptr i8, ptr %45, i64 %46
  br label %push_chunk.exit.sink.split

push_chunk.exit.sink.split:                       ; preds = %14, %39
  %.sink = phi ptr [ %47, %39 ], [ %15, %14 ]
  %.0.ph = phi ptr [ %45, %39 ], [ %5, %14 ]
  store ptr %.sink, ptr %4, align 8, !tbaa !311
  br label %push_chunk.exit

push_chunk.exit:                                  ; preds = %push_chunk.exit.sink.split, %21
  %.0 = phi ptr [ null, %21 ], [ %.0.ph, %push_chunk.exit.sink.split ]
  ret ptr %.0
}